; Function Attrs: mustprogress uwtable
define dso_local void @_Z37ImGui_ImplOpenGL3_DestroyFontsTexturev() local_unnamed_addr #0 {
_ZL32ImGui_ImplOpenGL3_GetBackendDatav.exit:
  %0 = tail call noundef nonnull align 8 dereferenceable(2944) ptr @_ZN5ImGui5GetIOEv()
  %1 = tail call noundef ptr @_ZN5ImGui17GetCurrentContextEv()
  %.not.i = icmp ne ptr %1, null
  tail call void @llvm.assume(i1 %.not.i)
  %2 = tail call noundef nonnull align 8 dereferenceable(2944) ptr @_ZN5ImGui5GetIOEv()
  %3 = getelementptr inbounds nuw i8, ptr %2, i64 152
  %4 = load ptr, ptr %3, align 8, !tbaa !19
  %5 = getelementptr inbounds nuw i8, ptr %4, i64 44
  %6 = load i32, ptr %5, align 4, !tbaa !50
  %.not = icmp eq i32 %6, 0
  br i1 %.not, label %12, label %7

7:                                                ; preds = %_ZL32ImGui_ImplOpenGL3_GetBackendDatav.exit
  %8 = load ptr, ptr getelementptr inbounds nuw (i8, ptr @imgl3wProcs, i64 152), align 8, !tbaa !10
  tail call void %8(i32 noundef 1, ptr noundef nonnull %5)
  %9 = getelementptr inbounds nuw i8, ptr %0, i64 48
  %10 = load ptr, ptr %9, align 8, !tbaa !51
  %11 = getelementptr inbounds nuw i8, ptr %10, i64 8
  store ptr null, ptr %11, align 8, !tbaa !52
  store i32 0, ptr %5, align 4, !tbaa !50
  br label %12

12:                                               ; preds = %7, %_ZL32ImGui_ImplOpenGL3_GetBackendDatav.exit
  ret void
}